target datalayout = "e-m:e-p270:32:32-p271:32:32-p272:64:64-i64:64-i128:128-f80:128-n8:16:32:64-S128"
target triple = "x86_64-unknown-linux-gnu"

%"class.datalog::check_table" = type { %"class.datalog::table_base.base", ptr, ptr }
%"class.datalog::table_base.base" = type { %"class.datalog::tr_infrastructure<datalog::table_traits>::base_ancestor.base" }
%"class.datalog::tr_infrastructure<datalog::table_traits>::base_ancestor.base" = type <{ ptr, ptr, %"class.datalog::table_signature", i32 }>
%"class.datalog::table_signature" = type <{ %"class.datalog::tr_infrastructure<datalog::table_traits>::signature_base", i32, [4 x i8] }>
%"class.datalog::tr_infrastructure<datalog::table_traits>::signature_base" = type { %class.svector }
%class.svector = type { %class.vector }
%class.vector = type { ptr }

; Function Attrs: mustprogress nounwind uwtable
define hidden noundef nonnull align 8 dereferenceable(56) ptr @_ZN7datalog18check_table_plugin3getERNS_10table_baseE(ptr noundef nonnull align 8 dereferenceable(36) %r) #5 align 2 {
entry:
  %r.addr = alloca ptr, align 8
  store ptr %r, ptr %r.addr, align 8
  %0 = load ptr, ptr %r.addr, align 8
  ret ptr %0
}

; Function Attrs: mustprogress nounwind uwtable
define hidden noundef ptr @_ZN7datalog18check_table_plugin7tocheckEPNS_10table_baseE(ptr noundef %r) #5 align 2 {
entry:
  %r.addr = alloca ptr, align 8
  store ptr %r, ptr %r.addr, align 8
  %0 = load ptr, ptr %r.addr, align 8
  %tobool = icmp ne ptr %0, null
  br i1 %tobool, label %cond.true, label %cond.false

cond.true:                                        ; preds = %entry
  %1 = load ptr, ptr %r.addr, align 8
  %call = call noundef nonnull align 8 dereferenceable(56) ptr @_ZN7datalog18check_table_plugin3getERNS_10table_baseE(ptr noundef nonnull align 8 dereferenceable(36) %1)
  %m_tocheck = getelementptr inbounds %"class.datalog::check_table", ptr %call, i32 0, i32 2
  %2 = load ptr, ptr %m_tocheck, align 8
  br label %cond.end

cond.false:                                       ; preds = %entry
  br label %cond.end

cond.end:                                         ; preds = %cond.false, %cond.true
  %cond = phi ptr [ %2, %cond.true ], [ null, %cond.false ]
  ret ptr %cond
}