; Function Attrs: mustprogress nofree norecurse nosync nounwind willreturn memory(argmem: read) uwtable
define hidden noundef ptr @_ZN7datalog18check_table_plugin7tocheckEPNS_10table_baseE(ptr noundef readonly %r) local_unnamed_addr #5 align 2 {
entry:
  %tobool.not = icmp eq ptr %r, null
  br i1 %tobool.not, label %cond.end, label %cond.true

cond.true:                                        ; preds = %entry
  %m_tocheck = getelementptr inbounds i8, ptr %r, i64 48
  %0 = load ptr, ptr %m_tocheck, align 8
  br label %cond.end

cond.end:                                         ; preds = %entry, %cond.true
  %cond = phi ptr [ %0, %cond.true ], [ null, %entry ]
  ret ptr %cond
}